target datalayout = "e-m:e-p270:32:32-p271:32:32-p272:64:64-i64:64-i128:128-f80:128-n8:16:32:64-S128"
target triple = "x86_64-pc-linux-gnu"

%struct.jpeg_compress_struct = type { ptr, ptr, ptr, ptr, i32, i32, ptr, i32, i32, i32, i32, double, i32, i32, i32, ptr, [4 x ptr], [4 x ptr], [4 x ptr], [16 x i8], [16 x i8], [16 x i8], i32, ptr, i32, i32, i32, i32, i32, i32, i32, i32, i32, i8, i8, i8, i16, i16, i32, i32, i32, i32, i32, i32, i32, [4 x ptr], i32, i32, i32, [10 x i32], i32, i32, i32, i32, ptr, ptr, ptr, ptr, ptr, ptr, ptr, ptr, ptr, ptr, i32 }
%struct.my_color_converter = type { %struct.jpeg_color_converter, ptr }
%struct.jpeg_color_converter = type { ptr, ptr }

; Function Attrs: nounwind uwtable
define internal void @rgb_gray_convert(ptr noundef %0, ptr noundef %1, ptr noundef %2, i32 noundef %3, i32 noundef %4) #0 {
  %6 = alloca ptr, align 8
  %7 = alloca ptr, align 8
  %8 = alloca ptr, align 8
  %9 = alloca i32, align 4
  %10 = alloca i32, align 4
  %11 = alloca ptr, align 8
  %12 = alloca i32, align 4
  %13 = alloca i32, align 4
  %14 = alloca i32, align 4
  %15 = alloca ptr, align 8
  %16 = alloca ptr, align 8
  %17 = alloca ptr, align 8
  %18 = alloca i32, align 4
  %19 = alloca i32, align 4
  store ptr %0, ptr %6, align 8
  store ptr %1, ptr %7, align 8
  store ptr %2, ptr %8, align 8
  store i32 %3, ptr %9, align 4
  store i32 %4, ptr %10, align 4
  %20 = load ptr, ptr %6, align 8
  %21 = getelementptr inbounds %struct.jpeg_compress_struct, ptr %20, i32 0, i32 59
  %22 = load ptr, ptr %21, align 8
  store ptr %22, ptr %11, align 8
  %23 = load ptr, ptr %11, align 8
  %24 = getelementptr inbounds %struct.my_color_converter, ptr %23, i32 0, i32 1
  %25 = load ptr, ptr %24, align 8
  store ptr %25, ptr %15, align 8
  %26 = load ptr, ptr %6, align 8
  %27 = getelementptr inbounds %struct.jpeg_compress_struct, ptr %26, i32 0, i32 7
  %28 = load i32, ptr %27, align 8
  store i32 %28, ptr %19, align 4
  br label %29

29:                                               ; preds = %94, %5
  %30 = load i32, ptr %10, align 4
  %31 = add nsw i32 %30, -1
  store i32 %31, ptr %10, align 4
  %32 = icmp sge i32 %31, 0
  br i1 %32, label %33, label %95

33:                                               ; preds = %29
  %34 = load ptr, ptr %7, align 8
  %35 = getelementptr inbounds ptr, ptr %34, i32 1
  store ptr %35, ptr %7, align 8
  %36 = load ptr, ptr %34, align 8
  store ptr %36, ptr %16, align 8
  %37 = load ptr, ptr %8, align 8
  %38 = getelementptr inbounds ptr, ptr %37, i64 0
  %39 = load ptr, ptr %38, align 8
  %40 = load i32, ptr %9, align 4
  %41 = zext i32 %40 to i64
  %42 = getelementptr inbounds ptr, ptr %39, i64 %41
  %43 = load ptr, ptr %42, align 8
  store ptr %43, ptr %17, align 8
  %44 = load i32, ptr %9, align 4
  %45 = add i32 %44, 1
  store i32 %45, ptr %9, align 4
  store i32 0, ptr %18, align 4
  br label %46

46:                                               ; preds = %91, %33
  %47 = load i32, ptr %18, align 4
  %48 = load i32, ptr %19, align 4
  %49 = icmp ult i32 %47, %48
  br i1 %49, label %50, label %94

50:                                               ; preds = %46
  %51 = load ptr, ptr %16, align 8
  %52 = getelementptr inbounds i8, ptr %51, i64 0
  %53 = load i8, ptr %52, align 1
  %54 = zext i8 %53 to i32
  store i32 %54, ptr %12, align 4
  %55 = load ptr, ptr %16, align 8
  %56 = getelementptr inbounds i8, ptr %55, i64 1
  %57 = load i8, ptr %56, align 1
  %58 = zext i8 %57 to i32
  store i32 %58, ptr %13, align 4
  %59 = load ptr, ptr %16, align 8
  %60 = getelementptr inbounds i8, ptr %59, i64 2
  %61 = load i8, ptr %60, align 1
  %62 = zext i8 %61 to i32
  store i32 %62, ptr %14, align 4
  %63 = load ptr, ptr %16, align 8
  %64 = getelementptr inbounds i8, ptr %63, i64 3
  store ptr %64, ptr %16, align 8
  %65 = load ptr, ptr %15, align 8
  %66 = load i32, ptr %12, align 4
  %67 = add nsw i32 %66, 0
  %68 = sext i32 %67 to i64
  %69 = getelementptr inbounds i32, ptr %65, i64 %68
  %70 = load i32, ptr %69, align 4
  %71 = load ptr, ptr %15, align 8
  %72 = load i32, ptr %13, align 4
  %73 = add nsw i32 %72, 256
  %74 = sext i32 %73 to i64
  %75 = getelementptr inbounds i32, ptr %71, i64 %74
  %76 = load i32, ptr %75, align 4
  %77 = add nsw i32 %70, %76
  %78 = load ptr, ptr %15, align 8
  %79 = load i32, ptr %14, align 4
  %80 = add nsw i32 %79, 512
  %81 = sext i32 %80 to i64
  %82 = getelementptr inbounds i32, ptr %78, i64 %81
  %83 = load i32, ptr %82, align 4
  %84 = add nsw i32 %77, %83
  %85 = ashr i32 %84, 16
  %86 = trunc i32 %85 to i8
  %87 = load ptr, ptr %17, align 8
  %88 = load i32, ptr %18, align 4
  %89 = zext i32 %88 to i64
  %90 = getelementptr inbounds i8, ptr %87, i64 %89
  store i8 %86, ptr %90, align 1
  br label %91

91:                                               ; preds = %50
  %92 = load i32, ptr %18, align 4
  %93 = add i32 %92, 1
  store i32 %93, ptr %18, align 4
  br label %46, !llvm.loop !10

94:                                               ; preds = %46
  br label %29, !llvm.loop !11

95:                                               ; preds = %29
  ret void
}