; Function Attrs: nofree norecurse nosync nounwind memory(readwrite, inaccessiblemem: none) uwtable
define internal void @rgb_gray_convert(ptr nocapture noundef readonly %0, ptr nocapture noundef readonly %1, ptr nocapture noundef readonly %2, i32 noundef %3, i32 noundef %4) #2 {
  %6 = getelementptr inbounds i8, ptr %0, i64 472
  %7 = load ptr, ptr %6, align 8
  %8 = getelementptr inbounds i8, ptr %7, i64 16
  %9 = load ptr, ptr %8, align 8
  %10 = getelementptr inbounds i8, ptr %0, i64 48
  %11 = load i32, ptr %10, align 8
  %12 = icmp slt i32 %4, 1
  %.not = icmp eq i32 %11, 0
  %or.cond = select i1 %12, i1 true, i1 %.not
  br i1 %or.cond, label %._crit_edge, label %.lr.ph.us.preheader

.lr.ph.us.preheader:                              ; preds = %5
  %wide.trip.count = zext i32 %11 to i64
  br label %.lr.ph.us

.lr.ph.us:                                        ; preds = %.lr.ph.us.preheader, %..loopexit_crit_edge.us
  %.in = phi i32 [ %13, %..loopexit_crit_edge.us ], [ %4, %.lr.ph.us.preheader ]
  %.030.us = phi ptr [ %42, %..loopexit_crit_edge.us ], [ %1, %.lr.ph.us.preheader ]
  %.02329.us = phi i32 [ %43, %..loopexit_crit_edge.us ], [ %3, %.lr.ph.us.preheader ]
  %13 = add nsw i32 %.in, -1
  %14 = load ptr, ptr %.030.us, align 8
  %15 = load ptr, ptr %2, align 8
  %16 = zext i32 %.02329.us to i64
  %17 = getelementptr inbounds ptr, ptr %15, i64 %16
  %18 = load ptr, ptr %17, align 8
  br label %19

19:                                               ; preds = %.lr.ph.us, %19
  %indvars.iv = phi i64 [ 0, %.lr.ph.us ], [ %indvars.iv.next, %19 ]
  %.02427.us = phi ptr [ %14, %.lr.ph.us ], [ %27, %19 ]
  %20 = load i8, ptr %.02427.us, align 1
  %21 = getelementptr inbounds i8, ptr %.02427.us, i64 1
  %22 = load i8, ptr %21, align 1
  %23 = zext i8 %22 to i64
  %24 = getelementptr inbounds i8, ptr %.02427.us, i64 2
  %25 = load i8, ptr %24, align 1
  %26 = zext i8 %25 to i64
  %27 = getelementptr inbounds i8, ptr %.02427.us, i64 3
  %28 = zext i8 %20 to i64
  %29 = getelementptr inbounds i32, ptr %9, i64 %28
  %30 = load i32, ptr %29, align 4
  %31 = or disjoint i64 %23, 256
  %32 = getelementptr inbounds i32, ptr %9, i64 %31
  %33 = load i32, ptr %32, align 4
  %34 = add nsw i32 %33, %30
  %35 = or disjoint i64 %26, 512
  %36 = getelementptr inbounds i32, ptr %9, i64 %35
  %37 = load i32, ptr %36, align 4
  %38 = add nsw i32 %34, %37
  %39 = lshr i32 %38, 16
  %40 = trunc i32 %39 to i8
  %41 = getelementptr inbounds i8, ptr %18, i64 %indvars.iv
  store i8 %40, ptr %41, align 1
  %indvars.iv.next = add nuw nsw i64 %indvars.iv, 1
  %exitcond.not = icmp eq i64 %indvars.iv.next, %wide.trip.count
  br i1 %exitcond.not, label %..loopexit_crit_edge.us, label %19, !llvm.loop !10

..loopexit_crit_edge.us:                          ; preds = %19
  %42 = getelementptr inbounds i8, ptr %.030.us, i64 8
  %43 = add i32 %.02329.us, 1
  %44 = icmp sgt i32 %.in, 1
  br i1 %44, label %.lr.ph.us, label %._crit_edge, !llvm.loop !11

._crit_edge:                                      ; preds = %..loopexit_crit_edge.us, %5
  ret void
}